; Function Attrs: nounwind uwtable
define void @dt_image_cache_init(ptr noundef %0) local_unnamed_addr #0 {
  tail call void @dt_cache_init(ptr noundef %0, i64 noundef 1856, i64 noundef 52428800) #8
  %2 = getelementptr inbounds nuw i8, ptr %0, i64 80
  store ptr @_image_cache_allocate, ptr %2, align 8, !tbaa !6
  %3 = getelementptr inbounds nuw i8, ptr %0, i64 96
  store ptr %0, ptr %3, align 8, !tbaa !15
  %4 = getelementptr inbounds nuw i8, ptr %0, i64 88
  store ptr @_image_cache_deallocate, ptr %4, align 8, !tbaa !16
  %5 = getelementptr inbounds nuw i8, ptr %0, i64 104
  store ptr %0, ptr %5, align 8, !tbaa !17
  %6 = load i32, ptr getelementptr inbounds nuw (i8, ptr @darktable, i64 8), align 8, !tbaa !18
  %7 = and i32 %6, 1
  %.not = icmp eq i32 %7, 0
  br i1 %.not, label %9, label %8

8:                                                ; preds = %1
  tail call void (ptr, ...) @dt_print_ext(ptr noundef nonnull @.str, i32 noundef 42372) #8
  br label %9

9:                                                ; preds = %8, %1
  ret void
}